; Function Attrs: mustprogress uwtable
define noundef nonnull ptr @_ZN16EditAlignFactory11getEditToolEPK7QAction(ptr nocapture noundef nonnull readnone align 8 dereferenceable(72) %0, ptr nocapture noundef readnone %1) unnamed_addr #9 align 2 personality ptr @__gxx_personality_v0 {
  %3 = tail call noalias noundef nonnull dereferenceable(1056) ptr @_Znwm(i64 noundef 1056) #20
  invoke void @_ZN15EditAlignPluginC1Ev(ptr noundef nonnull align 8 dereferenceable(1056) %3)
          to label %4 unwind label %6

4:                                                ; preds = %2
  %5 = getelementptr inbounds i8, ptr %3, i64 16
  ret ptr %5

6:                                                ; preds = %2
  %7 = landingpad { ptr, i32 }
          cleanup
  tail call void @_ZdlPv(ptr noundef nonnull %3) #16
  resume { ptr, i32 } %7
}